target datalayout = "e-m:e-p270:32:32-p271:32:32-p272:64:64-i64:64-i128:128-f80:128-n8:16:32:64-S128"
target triple = "x86_64-pc-linux-gnu"

@_ZZN33FastUnorderedElapsedCounterSource3nowEvE11valid_rdtsc = internal global i8 0, align 1
@_ZGVZN33FastUnorderedElapsedCounterSource3nowEvE11valid_rdtsc = internal global i64 0, align 8

; Function Attrs: mustprogress nounwind uwtable
define hidden noundef i64 @_ZN33FastUnorderedElapsedCounterSource3nowEv() #1 align 2 {
  %1 = alloca i64, align 8
  %2 = load atomic i8, ptr @_ZGVZN33FastUnorderedElapsedCounterSource3nowEvE11valid_rdtsc acquire, align 8
  %3 = icmp eq i8 %2, 0
  br i1 %3, label %4, label %10, !prof !6

4:                                                ; preds = %0
  %5 = call i32 @__cxa_guard_acquire(ptr @_ZGVZN33FastUnorderedElapsedCounterSource3nowEvE11valid_rdtsc) #2
  %6 = icmp ne i32 %5, 0
  br i1 %6, label %7, label %10

7:                                                ; preds = %4
  %8 = call noundef zeroext i1 @_ZN5Rdtsc10initializeEv()
  %9 = zext i1 %8 to i8
  store i8 %9, ptr @_ZZN33FastUnorderedElapsedCounterSource3nowEvE11valid_rdtsc, align 1
  call void @__cxa_guard_release(ptr @_ZGVZN33FastUnorderedElapsedCounterSource3nowEvE11valid_rdtsc) #2
  br label %10

10:                                               ; preds = %7, %4, %0
  %11 = load i8, ptr @_ZZN33FastUnorderedElapsedCounterSource3nowEvE11valid_rdtsc, align 1
  %12 = trunc i8 %11 to i1
  br i1 %12, label %13, label %15

13:                                               ; preds = %10
  %14 = call noundef i64 @_ZN5Rdtsc15elapsed_counterEv()
  store i64 %14, ptr %1, align 8
  br label %17

15:                                               ; preds = %10
  %16 = call noundef i64 @_ZN2os15elapsed_counterEv()
  store i64 %16, ptr %1, align 8
  br label %17

17:                                               ; preds = %15, %13
  %18 = load i64, ptr %1, align 8
  ret i64 %18
}