; Function Attrs: mustprogress nounwind uwtable
define hidden noundef i64 @_ZN33FastUnorderedElapsedCounterSource3nowEv() local_unnamed_addr #0 align 2 {
  %1 = load atomic i8, ptr @_ZGVZN33FastUnorderedElapsedCounterSource3nowEvE11valid_rdtsc acquire, align 8
  %2 = icmp eq i8 %1, 0
  br i1 %2, label %3, label %8, !prof !6

3:                                                ; preds = %0
  %4 = tail call i32 @__cxa_guard_acquire(ptr nonnull @_ZGVZN33FastUnorderedElapsedCounterSource3nowEvE11valid_rdtsc) #3
  %.not = icmp eq i32 %4, 0
  br i1 %.not, label %8, label %5

5:                                                ; preds = %3
  %6 = tail call noundef zeroext i1 @_ZN5Rdtsc10initializeEv() #3
  %7 = zext i1 %6 to i8
  store i8 %7, ptr @_ZZN33FastUnorderedElapsedCounterSource3nowEvE11valid_rdtsc, align 1
  tail call void @__cxa_guard_release(ptr nonnull @_ZGVZN33FastUnorderedElapsedCounterSource3nowEvE11valid_rdtsc) #3
  br label %8

8:                                                ; preds = %5, %3, %0
  %9 = load i8, ptr @_ZZN33FastUnorderedElapsedCounterSource3nowEvE11valid_rdtsc, align 1
  %10 = trunc nuw i8 %9 to i1
  br i1 %10, label %11, label %13

11:                                               ; preds = %8
  %12 = tail call noundef i64 @_ZN5Rdtsc15elapsed_counterEv() #3
  br label %15

13:                                               ; preds = %8
  %14 = tail call noundef i64 @_ZN2os15elapsed_counterEv() #3
  br label %15

15:                                               ; preds = %13, %11
  %.0 = phi i64 [ %12, %11 ], [ %14, %13 ]
  ret i64 %.0
}